; Function Attrs: mustprogress nofree norecurse nosync nounwind willreturn memory(readwrite, inaccessiblemem: none) uwtable
define hidden void @_ZN19NullCheckEliminator20handle_AccessMonitorEP13AccessMonitor(ptr nocapture noundef nonnull align 8 dereferenceable(88) %0, ptr nocapture noundef %1) local_unnamed_addr #4 align 2 {
  %3 = getelementptr inbounds i8, ptr %1, i64 104
  %4 = load ptr, ptr %3, align 8
  %5 = getelementptr inbounds i8, ptr %0, i64 32
  %6 = load ptr, ptr %5, align 8
  %7 = getelementptr inbounds i8, ptr %4, i64 8
  %8 = load i32, ptr %7, align 8
  %9 = sext i32 %8 to i64
  %10 = load ptr, ptr %6, align 8
  %11 = lshr i64 %9, 6
  %12 = getelementptr inbounds i64, ptr %10, i64 %11
  %13 = load i64, ptr %12, align 8
  %14 = and i64 %9, 63
  %15 = shl nuw i64 1, %14
  %16 = and i64 %15, %13
  %.not = icmp eq i64 %16, 0
  br i1 %.not, label %21, label %17

17:                                               ; preds = %2
  %18 = getelementptr inbounds i8, ptr %1, i64 56
  %19 = load i32, ptr %18, align 8
  %20 = and i32 %19, -2
  store i32 %20, ptr %18, align 8
  br label %26

21:                                               ; preds = %2
  %22 = or i64 %15, %13
  store i64 %22, ptr %12, align 8
  %23 = getelementptr inbounds i8, ptr %1, i64 56
  %24 = load i32, ptr %23, align 8
  %25 = or i32 %24, 1
  store i32 %25, ptr %23, align 8
  br label %26

26:                                               ; preds = %21, %17
  %27 = getelementptr inbounds i8, ptr %0, i64 80
  store ptr null, ptr %27, align 8
  ret void
}